; Function Attrs: mustprogress nounwind uwtable
define internal fastcc void @"_ZN7FinallyIZZN3nix5flake9lockFlakeERNS0_9EvalStateERKNS0_8FlakeRefERKNS1_9LockFlagsEENK3$_0clERKSt3mapINSt7__cxx1112basic_stringIcSt11char_traitsIcESaIcEEENS1_10FlakeInputESt4lessISH_ESaISt4pairIKSH_SI_EEENS0_3refINS1_4NodeEEERKSt6vectorISH_SaISH_EESt10shared_ptrIKST_ESZ_RSM_bEUlvE_ED2Ev"(ptr nocapture %.0.val) unnamed_addr #5 align 2 personality ptr @__gxx_personality_v0 {
  %1 = getelementptr inbounds i8, ptr %.0.val, i64 8
  %2 = load ptr, ptr %1, align 8
  %3 = getelementptr inbounds i8, ptr %2, i64 -136
  store ptr %3, ptr %1, align 8
  %4 = getelementptr inbounds i8, ptr %2, i64 -32
  %5 = load ptr, ptr %4, align 8
  %6 = getelementptr inbounds i8, ptr %2, i64 -16
  %7 = icmp eq ptr %5, %6
  br i1 %7, label %_ZNKSt7__cxx1112basic_stringIcSt11char_traitsIcESaIcEE11_M_is_localEv.exit.thread.i.i.i.i.i.i.i, label %_ZNKSt7__cxx1112basic_stringIcSt11char_traitsIcESaIcEE11_M_is_localEv.exit.i.i.i.i.i.i.i

_ZNKSt7__cxx1112basic_stringIcSt11char_traitsIcESaIcEE11_M_is_localEv.exit.thread.i.i.i.i.i.i.i: ; preds = %0
  %8 = getelementptr inbounds i8, ptr %2, i64 -24
  %9 = load i64, ptr %8, align 8
  %10 = icmp ult i64 %9, 16
  tail call void @llvm.assume(i1 %10)
  br label %"_ZZZN3nix5flake9lockFlakeERNS_9EvalStateERKNS_8FlakeRefERKNS0_9LockFlagsEENK3$_0clERKSt3mapINSt7__cxx1112basic_stringIcSt11char_traitsIcESaIcEEENS0_10FlakeInputESt4lessISG_ESaISt4pairIKSG_SH_EEENS_3refINS0_4NodeEEERKSt6vectorISG_SaISG_EESt10shared_ptrIKSS_ESY_RSL_bENKUlvE_clEv.exit"

_ZNKSt7__cxx1112basic_stringIcSt11char_traitsIcESaIcEE11_M_is_localEv.exit.i.i.i.i.i.i.i: ; preds = %0
  tail call void @_ZdlPv(ptr noundef %5) #30
  br label %"_ZZZN3nix5flake9lockFlakeERNS_9EvalStateERKNS_8FlakeRefERKNS0_9LockFlagsEENK3$_0clERKSt3mapINSt7__cxx1112basic_stringIcSt11char_traitsIcESaIcEEENS0_10FlakeInputESt4lessISG_ESaISt4pairIKSG_SH_EEENS_3refINS0_4NodeEEERKSt6vectorISG_SaISG_EESt10shared_ptrIKSS_ESY_RSL_bENKUlvE_clEv.exit"

"_ZZZN3nix5flake9lockFlakeERNS_9EvalStateERKNS_8FlakeRefERKNS0_9LockFlagsEENK3$_0clERKSt3mapINSt7__cxx1112basic_stringIcSt11char_traitsIcESaIcEEENS0_10FlakeInputESt4lessISG_ESaISt4pairIKSG_SH_EEENS_3refINS0_4NodeEEERKSt6vectorISG_SaISG_EESt10shared_ptrIKSS_ESY_RSL_bENKUlvE_clEv.exit": ; preds = %_ZNKSt7__cxx1112basic_stringIcSt11char_traitsIcESaIcEE11_M_is_localEv.exit.thread.i.i.i.i.i.i.i, %_ZNKSt7__cxx1112basic_stringIcSt11char_traitsIcESaIcEE11_M_is_localEv.exit.i.i.i.i.i.i.i
  tail call void @_ZNSaIcED2Ev(ptr noundef nonnull align 1 dereferenceable(1) %4) #27
  tail call void @_ZN3nix8fetchers5InputD2Ev(ptr noundef nonnull align 8 dereferenceable(104) %3) #27
  ret void
}